target datalayout = "e-m:e-p270:32:32-p271:32:32-p272:64:64-i64:64-i128:128-f80:128-n8:16:32:64-S128"
target triple = "x86_64-pc-linux-gnu"

%struct.PartitionTupleRouting = type { ptr, ptr, ptr, i32, i32, ptr, ptr, i32, i32, ptr }
%struct.EState = type { i32, i32, ptr, ptr, ptr, i32, ptr, ptr, ptr, ptr, ptr, ptr, ptr, ptr, ptr, ptr, i32, ptr, ptr, ptr, ptr, ptr, ptr, ptr, ptr, ptr, ptr, i64, i64, i32, i32, i8, ptr, ptr, ptr, ptr, ptr, i8, i32, i32, ptr, i32, ptr, ptr, ptr, ptr }
%struct.PartitionDispatchData = type { ptr, ptr, ptr, ptr, ptr, ptr, [0 x i32] }
%struct.ResultRelInfo = type { i32, i32, ptr, i32, ptr, ptr, i16, ptr, i8, ptr, ptr, ptr, i8, i8, ptr, ptr, ptr, ptr, ptr, ptr, ptr, ptr, ptr, ptr, i8, i32, i32, i32, ptr, ptr, ptr, ptr, ptr, ptr, ptr, i32, i32, ptr, ptr, ptr, ptr, [3 x ptr], ptr, ptr, ptr, i8, ptr, i8, ptr, ptr, ptr, ptr }
%struct.FdwRoutine = type { i32, ptr, ptr, ptr, ptr, ptr, ptr, ptr, ptr, ptr, ptr, ptr, ptr, ptr, ptr, ptr, ptr, ptr, ptr, ptr, ptr, ptr, ptr, ptr, ptr, ptr, ptr, ptr, ptr, ptr, ptr, ptr, ptr, ptr, ptr, ptr, ptr, ptr, ptr, ptr, ptr, ptr, ptr, ptr, ptr, ptr }

@CurrentMemoryContext = external global ptr, align 8

; Function Attrs: inlinehint nounwind uwtable
define internal ptr @MemoryContextSwitchTo(ptr noundef %0) #3 {
  %2 = alloca ptr, align 8
  %3 = alloca ptr, align 8
  store ptr %0, ptr %2, align 8
  call void @llvm.lifetime.start.p0(i64 8, ptr %3) #9
  %4 = load ptr, ptr @CurrentMemoryContext, align 8
  store ptr %4, ptr %3, align 8
  %5 = load ptr, ptr %2, align 8
  store ptr %5, ptr @CurrentMemoryContext, align 8
  %6 = load ptr, ptr %3, align 8
  call void @llvm.lifetime.end.p0(i64 8, ptr %3) #9
  ret ptr %6
}

; Function Attrs: nounwind uwtable
define internal void @ExecInitRoutingInfo(ptr noundef %0, ptr noundef %1, ptr noundef %2, ptr noundef %3, ptr noundef %4, i32 noundef %5, i1 noundef zeroext %6) #0 {
  %8 = alloca ptr, align 8
  %9 = alloca ptr, align 8
  %10 = alloca ptr, align 8
  %11 = alloca ptr, align 8
  %12 = alloca ptr, align 8
  %13 = alloca i32, align 4
  %14 = alloca i8, align 1
  %15 = alloca ptr, align 8
  %16 = alloca i32, align 4
  %17 = alloca ptr, align 8
  store ptr %0, ptr %8, align 8
  store ptr %1, ptr %9, align 8
  store ptr %2, ptr %10, align 8
  store ptr %3, ptr %11, align 8
  store ptr %4, ptr %12, align 8
  store i32 %5, ptr %13, align 4
  %18 = zext i1 %6 to i8
  store i8 %18, ptr %14, align 1
  call void @llvm.lifetime.start.p0(i64 8, ptr %15) #9
  call void @llvm.lifetime.start.p0(i64 4, ptr %16) #9
  %19 = load ptr, ptr %10, align 8
  %20 = getelementptr inbounds nuw %struct.PartitionTupleRouting, ptr %19, i32 0, i32 9
  %21 = load ptr, ptr %20, align 8
  %22 = call ptr @MemoryContextSwitchTo(ptr noundef %21)
  store ptr %22, ptr %15, align 8
  %23 = load ptr, ptr %12, align 8
  %24 = load ptr, ptr %9, align 8
  %25 = call ptr @ExecGetRootToChildMap(ptr noundef %23, ptr noundef %24)
  %26 = icmp ne ptr %25, null
  br i1 %26, label %27, label %37

27:                                               ; preds = %7
  call void @llvm.lifetime.start.p0(i64 8, ptr %17) #9
  %28 = load ptr, ptr %12, align 8
  %29 = getelementptr inbounds nuw %struct.ResultRelInfo, ptr %28, i32 0, i32 2
  %30 = load ptr, ptr %29, align 8
  store ptr %30, ptr %17, align 8
  %31 = load ptr, ptr %17, align 8
  %32 = load ptr, ptr %9, align 8
  %33 = getelementptr inbounds nuw %struct.EState, ptr %32, i32 0, i32 26
  %34 = call ptr @table_slot_create(ptr noundef %31, ptr noundef %33)
  %35 = load ptr, ptr %12, align 8
  %36 = getelementptr inbounds nuw %struct.ResultRelInfo, ptr %35, i32 0, i32 49
  store ptr %34, ptr %36, align 8
  call void @llvm.lifetime.end.p0(i64 8, ptr %17) #9
  br label %40

37:                                               ; preds = %7
  %38 = load ptr, ptr %12, align 8
  %39 = getelementptr inbounds nuw %struct.ResultRelInfo, ptr %38, i32 0, i32 49
  store ptr null, ptr %39, align 8
  br label %40

40:                                               ; preds = %37, %27
  %41 = load ptr, ptr %12, align 8
  %42 = getelementptr inbounds nuw %struct.ResultRelInfo, ptr %41, i32 0, i32 22
  %43 = load ptr, ptr %42, align 8
  %44 = icmp ne ptr %43, null
  br i1 %44, label %45, label %60

45:                                               ; preds = %40
  %46 = load ptr, ptr %12, align 8
  %47 = getelementptr inbounds nuw %struct.ResultRelInfo, ptr %46, i32 0, i32 22
  %48 = load ptr, ptr %47, align 8
  %49 = getelementptr inbounds nuw %struct.FdwRoutine, ptr %48, i32 0, i32 19
  %50 = load ptr, ptr %49, align 8
  %51 = icmp ne ptr %50, null
  br i1 %51, label %52, label %60

52:                                               ; preds = %45
  %53 = load ptr, ptr %12, align 8
  %54 = getelementptr inbounds nuw %struct.ResultRelInfo, ptr %53, i32 0, i32 22
  %55 = load ptr, ptr %54, align 8
  %56 = getelementptr inbounds nuw %struct.FdwRoutine, ptr %55, i32 0, i32 19
  %57 = load ptr, ptr %56, align 8
  %58 = load ptr, ptr %8, align 8
  %59 = load ptr, ptr %12, align 8
  call void %57(ptr noundef %58, ptr noundef %59)
  br label %60

60:                                               ; preds = %52, %45, %40
  %61 = load ptr, ptr %12, align 8
  %62 = getelementptr inbounds nuw %struct.ResultRelInfo, ptr %61, i32 0, i32 22
  %63 = load ptr, ptr %62, align 8
  %64 = icmp ne ptr %63, null
  br i1 %64, label %65, label %89

65:                                               ; preds = %60
  %66 = load ptr, ptr %12, align 8
  %67 = getelementptr inbounds nuw %struct.ResultRelInfo, ptr %66, i32 0, i32 22
  %68 = load ptr, ptr %67, align 8
  %69 = getelementptr inbounds nuw %struct.FdwRoutine, ptr %68, i32 0, i32 15
  %70 = load ptr, ptr %69, align 8
  %71 = icmp ne ptr %70, null
  br i1 %71, label %72, label %89

72:                                               ; preds = %65
  %73 = load ptr, ptr %12, align 8
  %74 = getelementptr inbounds nuw %struct.ResultRelInfo, ptr %73, i32 0, i32 22
  %75 = load ptr, ptr %74, align 8
  %76 = getelementptr inbounds nuw %struct.FdwRoutine, ptr %75, i32 0, i32 14
  %77 = load ptr, ptr %76, align 8
  %78 = icmp ne ptr %77, null
  br i1 %78, label %79, label %89

79:                                               ; preds = %72
  %80 = load ptr, ptr %12, align 8
  %81 = getelementptr inbounds nuw %struct.ResultRelInfo, ptr %80, i32 0, i32 22
  %82 = load ptr, ptr %81, align 8
  %83 = getelementptr inbounds nuw %struct.FdwRoutine, ptr %82, i32 0, i32 15
  %84 = load ptr, ptr %83, align 8
  %85 = load ptr, ptr %12, align 8
  %86 = call i32 %84(ptr noundef %85)
  %87 = load ptr, ptr %12, align 8
  %88 = getelementptr inbounds nuw %struct.ResultRelInfo, ptr %87, i32 0, i32 27
  store i32 %86, ptr %88, align 4
  br label %92

89:                                               ; preds = %72, %65, %60
  %90 = load ptr, ptr %12, align 8
  %91 = getelementptr inbounds nuw %struct.ResultRelInfo, ptr %90, i32 0, i32 27
  store i32 1, ptr %91, align 4
  br label %92

92:                                               ; preds = %89, %79
  %93 = load ptr, ptr %12, align 8
  %94 = getelementptr inbounds nuw %struct.ResultRelInfo, ptr %93, i32 0, i32 50
  store ptr null, ptr %94, align 8
  %95 = load ptr, ptr %10, align 8
  %96 = getelementptr inbounds nuw %struct.PartitionTupleRouting, ptr %95, i32 0, i32 7
  %97 = load i32, ptr %96, align 8
  %98 = add i32 %97, 1
  store i32 %98, ptr %96, align 8
  store i32 %97, ptr %16, align 4
  %99 = load ptr, ptr %10, align 8
  %100 = getelementptr inbounds nuw %struct.PartitionTupleRouting, ptr %99, i32 0, i32 7
  %101 = load i32, ptr %100, align 8
  %102 = load ptr, ptr %10, align 8
  %103 = getelementptr inbounds nuw %struct.PartitionTupleRouting, ptr %102, i32 0, i32 8
  %104 = load i32, ptr %103, align 4
  %105 = icmp sge i32 %101, %104
  br i1 %105, label %106, label %158

106:                                              ; preds = %92
  %107 = load ptr, ptr %10, align 8
  %108 = getelementptr inbounds nuw %struct.PartitionTupleRouting, ptr %107, i32 0, i32 8
  %109 = load i32, ptr %108, align 4
  %110 = icmp eq i32 %109, 0
  br i1 %110, label %111, label %130

111:                                              ; preds = %106
  %112 = load ptr, ptr %10, align 8
  %113 = getelementptr inbounds nuw %struct.PartitionTupleRouting, ptr %112, i32 0, i32 8
  store i32 8, ptr %113, align 4
  %114 = load ptr, ptr %10, align 8
  %115 = getelementptr inbounds nuw %struct.PartitionTupleRouting, ptr %114, i32 0, i32 8
  %116 = load i32, ptr %115, align 4
  %117 = sext i32 %116 to i64
  %118 = mul i64 8, %117
  %119 = call ptr @palloc(i64 noundef %118)
  %120 = load ptr, ptr %10, align 8
  %121 = getelementptr inbounds nuw %struct.PartitionTupleRouting, ptr %120, i32 0, i32 5
  store ptr %119, ptr %121, align 8
  %122 = load ptr, ptr %10, align 8
  %123 = getelementptr inbounds nuw %struct.PartitionTupleRouting, ptr %122, i32 0, i32 8
  %124 = load i32, ptr %123, align 4
  %125 = sext i32 %124 to i64
  %126 = mul i64 1, %125
  %127 = call ptr @palloc(i64 noundef %126)
  %128 = load ptr, ptr %10, align 8
  %129 = getelementptr inbounds nuw %struct.PartitionTupleRouting, ptr %128, i32 0, i32 6
  store ptr %127, ptr %129, align 8
  br label %157

130:                                              ; preds = %106
  %131 = load ptr, ptr %10, align 8
  %132 = getelementptr inbounds nuw %struct.PartitionTupleRouting, ptr %131, i32 0, i32 8
  %133 = load i32, ptr %132, align 4
  %134 = mul i32 %133, 2
  store i32 %134, ptr %132, align 4
  %135 = load ptr, ptr %10, align 8
  %136 = getelementptr inbounds nuw %struct.PartitionTupleRouting, ptr %135, i32 0, i32 5
  %137 = load ptr, ptr %136, align 8
  %138 = load ptr, ptr %10, align 8
  %139 = getelementptr inbounds nuw %struct.PartitionTupleRouting, ptr %138, i32 0, i32 8
  %140 = load i32, ptr %139, align 4
  %141 = sext i32 %140 to i64
  %142 = mul i64 8, %141
  %143 = call ptr @repalloc(ptr noundef %137, i64 noundef %142)
  %144 = load ptr, ptr %10, align 8
  %145 = getelementptr inbounds nuw %struct.PartitionTupleRouting, ptr %144, i32 0, i32 5
  store ptr %143, ptr %145, align 8
  %146 = load ptr, ptr %10, align 8
  %147 = getelementptr inbounds nuw %struct.PartitionTupleRouting, ptr %146, i32 0, i32 6
  %148 = load ptr, ptr %147, align 8
  %149 = load ptr, ptr %10, align 8
  %150 = getelementptr inbounds nuw %struct.PartitionTupleRouting, ptr %149, i32 0, i32 8
  %151 = load i32, ptr %150, align 4
  %152 = sext i32 %151 to i64
  %153 = mul i64 1, %152
  %154 = call ptr @repalloc(ptr noundef %148, i64 noundef %153)
  %155 = load ptr, ptr %10, align 8
  %156 = getelementptr inbounds nuw %struct.PartitionTupleRouting, ptr %155, i32 0, i32 6
  store ptr %154, ptr %156, align 8
  br label %157

157:                                              ; preds = %130, %111
  br label %158

158:                                              ; preds = %157, %92
  %159 = load ptr, ptr %12, align 8
  %160 = load ptr, ptr %10, align 8
  %161 = getelementptr inbounds nuw %struct.PartitionTupleRouting, ptr %160, i32 0, i32 5
  %162 = load ptr, ptr %161, align 8
  %163 = load i32, ptr %16, align 4
  %164 = sext i32 %163 to i64
  %165 = getelementptr inbounds ptr, ptr %162, i64 %164
  store ptr %159, ptr %165, align 8
  %166 = load i8, ptr %14, align 1, !range !4, !noundef !5
  %167 = trunc i8 %166 to i1
  %168 = load ptr, ptr %10, align 8
  %169 = getelementptr inbounds nuw %struct.PartitionTupleRouting, ptr %168, i32 0, i32 6
  %170 = load ptr, ptr %169, align 8
  %171 = load i32, ptr %16, align 4
  %172 = sext i32 %171 to i64
  %173 = getelementptr inbounds i8, ptr %170, i64 %172
  %174 = zext i1 %167 to i8
  store i8 %174, ptr %173, align 1
  %175 = load i32, ptr %16, align 4
  %176 = load ptr, ptr %11, align 8
  %177 = getelementptr inbounds nuw %struct.PartitionDispatchData, ptr %176, i32 0, i32 6
  %178 = load i32, ptr %13, align 4
  %179 = sext i32 %178 to i64
  %180 = getelementptr inbounds [0 x i32], ptr %177, i64 0, i64 %179
  store i32 %175, ptr %180, align 4
  %181 = load ptr, ptr %15, align 8
  %182 = call ptr @MemoryContextSwitchTo(ptr noundef %181)
  call void @llvm.lifetime.end.p0(i64 4, ptr %16) #9
  call void @llvm.lifetime.end.p0(i64 8, ptr %15) #9
  ret void
}