; Function Attrs: nounwind uwtable
define internal fastcc void @ExecInitRoutingInfo(ptr noundef %0, ptr noundef %1, ptr noundef captures(none) %2, ptr noundef nonnull writeonly captures(none) %3, ptr noundef %4, i32 noundef range(i32 0, -2147483648) %5, i1 noundef zeroext %6) unnamed_addr #0 {
  %8 = getelementptr inbounds nuw i8, ptr %2, i64 56
  %9 = load ptr, ptr %8, align 8
  %10 = load ptr, ptr @CurrentMemoryContext, align 8
  store ptr %9, ptr @CurrentMemoryContext, align 8
  %11 = tail call ptr @ExecGetRootToChildMap(ptr noundef %4, ptr noundef %1) #9
  %.not = icmp eq ptr %11, null
  br i1 %.not, label %17, label %12

12:                                               ; preds = %7
  %13 = getelementptr inbounds nuw i8, ptr %4, i64 8
  %14 = load ptr, ptr %13, align 8
  %15 = getelementptr inbounds nuw i8, ptr %1, i64 200
  %16 = tail call ptr @table_slot_create(ptr noundef %14, ptr noundef nonnull %15) #9
  br label %17

17:                                               ; preds = %7, %12
  %.sink = phi ptr [ %16, %12 ], [ null, %7 ]
  %18 = getelementptr inbounds nuw i8, ptr %4, i64 368
  store ptr %.sink, ptr %18, align 8
  %19 = getelementptr inbounds nuw i8, ptr %4, i64 160
  %20 = load ptr, ptr %19, align 8
  %.not50 = icmp eq ptr %20, null
  br i1 %.not50, label %.thread, label %21

21:                                               ; preds = %17
  %22 = getelementptr inbounds nuw i8, ptr %20, i64 152
  %23 = load ptr, ptr %22, align 8
  %.not51 = icmp eq ptr %23, null
  br i1 %.not51, label %.thread58, label %24

24:                                               ; preds = %21
  tail call void %23(ptr noundef %0, ptr noundef nonnull %4) #9
  %.pr.pre = load ptr, ptr %19, align 8
  %.not52 = icmp eq ptr %.pr.pre, null
  br i1 %.not52, label %.thread, label %.thread58

.thread58:                                        ; preds = %21, %24
  %.pr61 = phi ptr [ %.pr.pre, %24 ], [ %20, %21 ]
  %25 = getelementptr inbounds nuw i8, ptr %.pr61, i64 120
  %26 = load ptr, ptr %25, align 8
  %.not53 = icmp eq ptr %26, null
  br i1 %.not53, label %.thread, label %27

27:                                               ; preds = %.thread58
  %28 = getelementptr inbounds nuw i8, ptr %.pr61, i64 112
  %29 = load ptr, ptr %28, align 8
  %.not54 = icmp eq ptr %29, null
  br i1 %.not54, label %.thread, label %30

30:                                               ; preds = %27
  %31 = tail call i32 %26(ptr noundef nonnull %4) #9
  br label %.thread

.thread:                                          ; preds = %24, %.thread58, %27, %17, %30
  %.sink62 = phi i32 [ %31, %30 ], [ 1, %17 ], [ 1, %27 ], [ 1, %.thread58 ], [ 1, %24 ]
  %32 = getelementptr inbounds nuw i8, ptr %4, i64 188
  store i32 %.sink62, ptr %32, align 4
  %33 = getelementptr inbounds nuw i8, ptr %4, i64 376
  store ptr null, ptr %33, align 8
  %34 = getelementptr inbounds nuw i8, ptr %2, i64 48
  %35 = load i32, ptr %34, align 8
  %36 = add i32 %35, 1
  store i32 %36, ptr %34, align 8
  %37 = getelementptr inbounds nuw i8, ptr %2, i64 52
  %38 = load i32, ptr %37, align 4
  %.not55 = icmp slt i32 %36, %38
  br i1 %.not55, label %59, label %39

39:                                               ; preds = %.thread
  %40 = icmp eq i32 %38, 0
  %41 = getelementptr inbounds nuw i8, ptr %2, i64 32
  br i1 %40, label %42, label %48

42:                                               ; preds = %39
  store i32 8, ptr %37, align 4
  %43 = tail call ptr @palloc(i64 noundef 64) #9
  store ptr %43, ptr %41, align 8
  %44 = load i32, ptr %37, align 4
  %45 = sext i32 %44 to i64
  %46 = tail call ptr @palloc(i64 noundef %45) #9
  %47 = getelementptr inbounds nuw i8, ptr %2, i64 40
  store ptr %46, ptr %47, align 8
  br label %59

48:                                               ; preds = %39
  %49 = shl i32 %38, 1
  store i32 %49, ptr %37, align 4
  %50 = load ptr, ptr %41, align 8
  %51 = sext i32 %49 to i64
  %52 = shl nsw i64 %51, 3
  %53 = tail call ptr @repalloc(ptr noundef %50, i64 noundef %52) #9
  store ptr %53, ptr %41, align 8
  %54 = getelementptr inbounds nuw i8, ptr %2, i64 40
  %55 = load ptr, ptr %54, align 8
  %56 = load i32, ptr %37, align 4
  %57 = sext i32 %56 to i64
  %58 = tail call ptr @repalloc(ptr noundef %55, i64 noundef %57) #9
  store ptr %58, ptr %54, align 8
  br label %59

59:                                               ; preds = %42, %48, %.thread
  %60 = zext i1 %6 to i8
  %61 = getelementptr inbounds nuw i8, ptr %2, i64 32
  %62 = load ptr, ptr %61, align 8
  %63 = sext i32 %35 to i64
  %64 = getelementptr inbounds ptr, ptr %62, i64 %63
  store ptr %4, ptr %64, align 8
  %65 = getelementptr inbounds nuw i8, ptr %2, i64 40
  %66 = load ptr, ptr %65, align 8
  %67 = getelementptr inbounds i8, ptr %66, i64 %63
  store i8 %60, ptr %67, align 1
  %68 = getelementptr inbounds nuw i8, ptr %3, i64 48
  %69 = zext nneg i32 %5 to i64
  %70 = getelementptr inbounds nuw [0 x i32], ptr %68, i64 0, i64 %69
  store i32 %35, ptr %70, align 4
  store ptr %10, ptr @CurrentMemoryContext, align 8
  ret void
}